target datalayout = "e-m:e-p270:32:32-p271:32:32-p272:64:64-i64:64-i128:128-f80:128-n8:16:32:64-S128"
target triple = "x86_64-pc-linux-gnu"

%struct.ggml_tensor = type { i32, ptr, [4 x i64], [4 x i64], i32, [16 x i32], i32, [10 x ptr], ptr, i64, ptr, [64 x i8], ptr, [8 x i8] }

@.str.1 = private unnamed_addr constant [119 x i8] c"generated/home/dtcxzyw/WorkSpace/Projects/compilers/llvm-opt-benchmark/bench/llama.cpp/llama.cpp/ggml/src/ggml-alloc.c\00", align 1
@.str.3 = private unnamed_addr constant [23 x i8] c"GGML_ASSERT(%s) failed\00", align 1
@.str.14 = private unnamed_addr constant [31 x i8] c"ggml_get_no_alloc(ctx) == true\00", align 1

; Function Attrs: nounwind uwtable
define ptr @ggml_backend_alloc_ctx_tensors_from_buft(ptr noundef %0, ptr noundef %1) #0 {
  %3 = alloca ptr, align 8
  %4 = alloca ptr, align 8
  %5 = alloca ptr, align 8
  %6 = alloca i64, align 8
  %7 = alloca i64, align 8
  %8 = alloca ptr, align 8
  %9 = alloca i64, align 8
  %10 = alloca i64, align 8
  %11 = alloca ptr, align 8
  %12 = alloca ptr, align 8
  %13 = alloca i32, align 4
  %14 = alloca i64, align 8
  %15 = alloca ptr, align 8
  store ptr %0, ptr %4, align 8, !tbaa !129
  store ptr %1, ptr %5, align 8, !tbaa !39
  %16 = load ptr, ptr %4, align 8, !tbaa !129
  %17 = call zeroext i1 @ggml_get_no_alloc(ptr noundef %16)
  %18 = zext i1 %17 to i32
  %19 = icmp eq i32 %18, 1
  br i1 %19, label %21, label %20

20:                                               ; preds = %2
  call void (ptr, i32, ptr, ...) @ggml_abort(ptr noundef @.str.1, i32 noundef 976, ptr noundef @.str.3, ptr noundef @.str.14) #12
  unreachable

21:                                               ; preds = %2
  call void @llvm.lifetime.start.p0(i64 8, ptr %6) #11
  %22 = load ptr, ptr %5, align 8, !tbaa !39
  %23 = call i64 @ggml_backend_buft_get_alignment(ptr noundef %22)
  store i64 %23, ptr %6, align 8, !tbaa !9
  call void @llvm.lifetime.start.p0(i64 8, ptr %7) #11
  %24 = load ptr, ptr %5, align 8, !tbaa !39
  %25 = call i64 @ggml_backend_buft_get_max_size(ptr noundef %24)
  store i64 %25, ptr %7, align 8, !tbaa !9
  call void @llvm.lifetime.start.p0(i64 8, ptr %8) #11
  store ptr null, ptr %8, align 8, !tbaa !131
  call void @llvm.lifetime.start.p0(i64 8, ptr %9) #11
  store i64 0, ptr %9, align 8, !tbaa !9
  call void @llvm.lifetime.start.p0(i64 8, ptr %10) #11
  store i64 0, ptr %10, align 8, !tbaa !9
  call void @llvm.lifetime.start.p0(i64 8, ptr %11) #11
  %26 = load ptr, ptr %4, align 8, !tbaa !129
  %27 = call ptr @ggml_get_first_tensor(ptr noundef %26)
  store ptr %27, ptr %11, align 8, !tbaa !18
  call void @llvm.lifetime.start.p0(i64 8, ptr %12) #11
  %28 = load ptr, ptr %11, align 8, !tbaa !18
  store ptr %28, ptr %12, align 8, !tbaa !18
  br label %29

29:                                               ; preds = %82, %21
  %30 = load ptr, ptr %12, align 8, !tbaa !18
  %31 = icmp ne ptr %30, null
  br i1 %31, label %33, label %32

32:                                               ; preds = %29
  store i32 2, ptr %13, align 4
  br label %86

33:                                               ; preds = %29
  call void @llvm.lifetime.start.p0(i64 8, ptr %14) #11
  store i64 0, ptr %14, align 8, !tbaa !9
  %34 = load ptr, ptr %12, align 8, !tbaa !18
  %35 = getelementptr inbounds nuw %struct.ggml_tensor, ptr %34, i32 0, i32 10
  %36 = load ptr, ptr %35, align 8, !tbaa !77
  %37 = icmp eq ptr %36, null
  br i1 %37, label %38, label %54

38:                                               ; preds = %33
  %39 = load ptr, ptr %12, align 8, !tbaa !18
  %40 = getelementptr inbounds nuw %struct.ggml_tensor, ptr %39, i32 0, i32 8
  %41 = load ptr, ptr %40, align 8, !tbaa !75
  %42 = icmp eq ptr %41, null
  br i1 %42, label %43, label %54

43:                                               ; preds = %38
  %44 = load ptr, ptr %5, align 8, !tbaa !39
  %45 = load ptr, ptr %12, align 8, !tbaa !18
  %46 = call i64 @ggml_backend_buft_get_alloc_size(ptr noundef %44, ptr noundef %45)
  %47 = load i64, ptr %6, align 8, !tbaa !9
  %48 = add i64 %46, %47
  %49 = sub i64 %48, 1
  %50 = load i64, ptr %6, align 8, !tbaa !9
  %51 = sub i64 %50, 1
  %52 = xor i64 %51, -1
  %53 = and i64 %49, %52
  store i64 %53, ptr %14, align 8, !tbaa !9
  br label %54

54:                                               ; preds = %43, %38, %33
  %55 = load i64, ptr %10, align 8, !tbaa !9
  %56 = icmp ugt i64 %55, 0
  br i1 %56, label %57, label %74

57:                                               ; preds = %54
  %58 = load i64, ptr %10, align 8, !tbaa !9
  %59 = load i64, ptr %14, align 8, !tbaa !9
  %60 = add i64 %58, %59
  %61 = load i64, ptr %7, align 8, !tbaa !9
  %62 = icmp ugt i64 %60, %61
  br i1 %62, label %63, label %74

63:                                               ; preds = %57
  %64 = load ptr, ptr %4, align 8, !tbaa !129
  %65 = load ptr, ptr %11, align 8, !tbaa !18
  %66 = load ptr, ptr %12, align 8, !tbaa !18
  %67 = load ptr, ptr %5, align 8, !tbaa !39
  %68 = load i64, ptr %10, align 8, !tbaa !9
  %69 = call zeroext i1 @alloc_tensor_range(ptr noundef %64, ptr noundef %65, ptr noundef %66, ptr noundef %67, i64 noundef %68, ptr noundef %8, ptr noundef %9)
  br i1 %69, label %71, label %70

70:                                               ; preds = %63
  store ptr null, ptr %3, align 8
  store i32 1, ptr %13, align 4
  br label %79

71:                                               ; preds = %63
  %72 = load ptr, ptr %12, align 8, !tbaa !18
  store ptr %72, ptr %11, align 8, !tbaa !18
  %73 = load i64, ptr %14, align 8, !tbaa !9
  store i64 %73, ptr %10, align 8, !tbaa !9
  br label %78

74:                                               ; preds = %57, %54
  %75 = load i64, ptr %14, align 8, !tbaa !9
  %76 = load i64, ptr %10, align 8, !tbaa !9
  %77 = add i64 %76, %75
  store i64 %77, ptr %10, align 8, !tbaa !9
  br label %78

78:                                               ; preds = %74, %71
  store i32 0, ptr %13, align 4
  br label %79

79:                                               ; preds = %78, %70
  call void @llvm.lifetime.end.p0(i64 8, ptr %14) #11
  %80 = load i32, ptr %13, align 4
  switch i32 %80, label %86 [
    i32 0, label %81
  ]

81:                                               ; preds = %79
  br label %82

82:                                               ; preds = %81
  %83 = load ptr, ptr %4, align 8, !tbaa !129
  %84 = load ptr, ptr %12, align 8, !tbaa !18
  %85 = call ptr @ggml_get_next_tensor(ptr noundef %83, ptr noundef %84)
  store ptr %85, ptr %12, align 8, !tbaa !18
  br label %29, !llvm.loop !132

86:                                               ; preds = %79, %32
  call void @llvm.lifetime.end.p0(i64 8, ptr %12) #11
  %87 = load i32, ptr %13, align 4
  switch i32 %87, label %117 [
    i32 2, label %88
  ]

88:                                               ; preds = %86
  %89 = load i64, ptr %10, align 8, !tbaa !9
  %90 = icmp ugt i64 %89, 0
  br i1 %90, label %91, label %99

91:                                               ; preds = %88
  %92 = load ptr, ptr %4, align 8, !tbaa !129
  %93 = load ptr, ptr %11, align 8, !tbaa !18
  %94 = load ptr, ptr %5, align 8, !tbaa !39
  %95 = load i64, ptr %10, align 8, !tbaa !9
  %96 = call zeroext i1 @alloc_tensor_range(ptr noundef %92, ptr noundef %93, ptr noundef null, ptr noundef %94, i64 noundef %95, ptr noundef %8, ptr noundef %9)
  br i1 %96, label %98, label %97

97:                                               ; preds = %91
  store ptr null, ptr %3, align 8
  store i32 1, ptr %13, align 4
  br label %117

98:                                               ; preds = %91
  br label %99

99:                                               ; preds = %98, %88
  %100 = load i64, ptr %9, align 8, !tbaa !9
  %101 = icmp eq i64 %100, 0
  br i1 %101, label %102, label %103

102:                                              ; preds = %99
  store ptr null, ptr %3, align 8
  store i32 1, ptr %13, align 4
  br label %117

103:                                              ; preds = %99
  call void @llvm.lifetime.start.p0(i64 8, ptr %15) #11
  %104 = load i64, ptr %9, align 8, !tbaa !9
  %105 = icmp eq i64 %104, 1
  br i1 %105, label %106, label %110

106:                                              ; preds = %103
  %107 = load ptr, ptr %8, align 8, !tbaa !131
  %108 = getelementptr inbounds ptr, ptr %107, i64 0
  %109 = load ptr, ptr %108, align 8, !tbaa !3
  store ptr %109, ptr %15, align 8, !tbaa !3
  br label %114

110:                                              ; preds = %103
  %111 = load ptr, ptr %8, align 8, !tbaa !131
  %112 = load i64, ptr %9, align 8, !tbaa !9
  %113 = call ptr @ggml_backend_multi_buffer_alloc_buffer(ptr noundef %111, i64 noundef %112)
  store ptr %113, ptr %15, align 8, !tbaa !3
  br label %114

114:                                              ; preds = %110, %106
  %115 = load ptr, ptr %8, align 8, !tbaa !131
  call void @free(ptr noundef %115) #11
  %116 = load ptr, ptr %15, align 8, !tbaa !3
  store ptr %116, ptr %3, align 8
  store i32 1, ptr %13, align 4
  call void @llvm.lifetime.end.p0(i64 8, ptr %15) #11
  br label %117

117:                                              ; preds = %114, %102, %97, %86
  call void @llvm.lifetime.end.p0(i64 8, ptr %11) #11
  call void @llvm.lifetime.end.p0(i64 8, ptr %10) #11
  call void @llvm.lifetime.end.p0(i64 8, ptr %9) #11
  call void @llvm.lifetime.end.p0(i64 8, ptr %8) #11
  call void @llvm.lifetime.end.p0(i64 8, ptr %7) #11
  call void @llvm.lifetime.end.p0(i64 8, ptr %6) #11
  %118 = load ptr, ptr %3, align 8
  ret ptr %118
}