; Function Attrs: nounwind uwtable
define ptr @ggml_backend_alloc_ctx_tensors_from_buft(ptr noundef %0, ptr noundef %1) local_unnamed_addr #0 {
  %3 = alloca ptr, align 8
  %4 = alloca i64, align 8
  %5 = tail call zeroext i1 @ggml_get_no_alloc(ptr noundef %0) #12
  br i1 %5, label %7, label %6

6:                                                ; preds = %2
  tail call void (ptr, i32, ptr, ...) @ggml_abort(ptr noundef nonnull @.str.1, i32 noundef 976, ptr noundef nonnull @.str.3, ptr noundef nonnull @.str.14) #13
  unreachable

7:                                                ; preds = %2
  %8 = tail call i64 @ggml_backend_buft_get_alignment(ptr noundef %1) #12
  %9 = tail call i64 @ggml_backend_buft_get_max_size(ptr noundef %1) #12
  call void @llvm.lifetime.start.p0(i64 8, ptr nonnull %3) #12
  store ptr null, ptr %3, align 8, !tbaa !122
  call void @llvm.lifetime.start.p0(i64 8, ptr nonnull %4) #12
  store i64 0, ptr %4, align 8, !tbaa !36
  %10 = tail call ptr @ggml_get_first_tensor(ptr noundef %0) #12
  %.not65 = icmp eq ptr %10, null
  br i1 %.not65, label %.loopexit, label %.lr.ph

.lr.ph:                                           ; preds = %7
  %11 = add i64 %8, -1
  %12 = sub i64 0, %8
  br label %13

13:                                               ; preds = %.lr.ph, %30
  %.03868 = phi ptr [ %10, %.lr.ph ], [ %31, %30 ]
  %.03967 = phi ptr [ %10, %.lr.ph ], [ %.2.ph, %30 ]
  %.04166 = phi i64 [ 0, %.lr.ph ], [ %.243.ph, %30 ]
  %14 = getelementptr inbounds nuw i8, ptr %.03868, i64 248
  %15 = load ptr, ptr %14, align 8, !tbaa !96
  %16 = icmp eq ptr %15, null
  br i1 %16, label %17, label %25

17:                                               ; preds = %13
  %18 = getelementptr inbounds nuw i8, ptr %.03868, i64 232
  %19 = load ptr, ptr %18, align 8, !tbaa !63
  %20 = icmp eq ptr %19, null
  br i1 %20, label %21, label %25

21:                                               ; preds = %17
  %22 = tail call i64 @ggml_backend_buft_get_alloc_size(ptr noundef %1, ptr noundef nonnull %.03868) #12
  %23 = add i64 %11, %22
  %24 = and i64 %23, %12
  br label %25

25:                                               ; preds = %21, %17, %13
  %.036 = phi i64 [ %24, %21 ], [ 0, %17 ], [ 0, %13 ]
  %.not50 = icmp ne i64 %.04166, 0
  %26 = add i64 %.036, %.04166
  %27 = icmp ugt i64 %26, %9
  %or.cond = select i1 %.not50, i1 %27, i1 false
  br i1 %or.cond, label %28, label %30

28:                                               ; preds = %25
  %29 = call fastcc zeroext i1 @alloc_tensor_range(ptr noundef %0, ptr noundef %.03967, ptr noundef nonnull %.03868, ptr noundef %1, i64 noundef %.04166, ptr noundef %3, ptr noundef %4)
  br i1 %29, label %30, label %.loopexit

30:                                               ; preds = %28, %25
  %.243.ph = phi i64 [ %26, %25 ], [ %.036, %28 ]
  %.2.ph = phi ptr [ %.03967, %25 ], [ %.03868, %28 ]
  %31 = tail call ptr @ggml_get_next_tensor(ptr noundef %0, ptr noundef nonnull %.03868) #12
  %.not = icmp eq ptr %31, null
  br i1 %.not, label %._crit_edge, label %13, !llvm.loop !123

._crit_edge:                                      ; preds = %30
  %.not51 = icmp eq i64 %.243.ph, 0
  br i1 %.not51, label %34, label %32

32:                                               ; preds = %._crit_edge
  %33 = call fastcc zeroext i1 @alloc_tensor_range(ptr noundef %0, ptr noundef %.2.ph, ptr noundef null, ptr noundef %1, i64 noundef %.243.ph, ptr noundef %3, ptr noundef %4)
  br i1 %33, label %34, label %.loopexit

34:                                               ; preds = %32, %._crit_edge
  %.pr = load i64, ptr %4, align 8, !tbaa !36
  switch i64 %.pr, label %38 [
    i64 0, label %.loopexit
    i64 1, label %35
  ]

35:                                               ; preds = %34
  %36 = load ptr, ptr %3, align 8, !tbaa !122
  %37 = load ptr, ptr %36, align 8, !tbaa !31
  br label %41

38:                                               ; preds = %34
  %39 = load ptr, ptr %3, align 8, !tbaa !122
  %40 = tail call ptr @ggml_backend_multi_buffer_alloc_buffer(ptr noundef %39, i64 noundef %.pr) #12
  br label %41

41:                                               ; preds = %38, %35
  %42 = phi ptr [ %36, %35 ], [ %39, %38 ]
  %.0 = phi ptr [ %37, %35 ], [ %40, %38 ]
  tail call void @free(ptr noundef %42) #12
  br label %.loopexit

.loopexit:                                        ; preds = %28, %7, %34, %32, %41
  %.348 = phi ptr [ %.0, %41 ], [ null, %32 ], [ null, %34 ], [ null, %7 ], [ null, %28 ]
  call void @llvm.lifetime.end.p0(i64 8, ptr nonnull %4) #12
  call void @llvm.lifetime.end.p0(i64 8, ptr nonnull %3) #12
  ret ptr %.348
}